
test2:     file format elf64-x86-64


Disassembly of section .init:

0000000000400420 <_init>:
  400420:	48 83 ec 08          	sub    $0x8,%rsp
  400424:	e8 73 00 00 00       	callq  40049c <call_gmon_start>
  400429:	48 83 c4 08          	add    $0x8,%rsp
  40042d:	c3                   	retq   

Disassembly of section .plt:

0000000000400430 <__libc_start_main@plt-0x10>:
  400430:	ff 35 d2 0b 20 00    	pushq  0x200bd2(%rip)        # 601008 <_GLOBAL_OFFSET_TABLE_+0x8>
  400436:	ff 25 d4 0b 20 00    	jmpq   *0x200bd4(%rip)        # 601010 <_GLOBAL_OFFSET_TABLE_+0x10>
  40043c:	0f 1f 40 00          	nopl   0x0(%rax)

0000000000400440 <__libc_start_main@plt>:
  400440:	ff 25 d2 0b 20 00    	jmpq   *0x200bd2(%rip)        # 601018 <_GLOBAL_OFFSET_TABLE_+0x18>
  400446:	68 00 00 00 00       	pushq  $0x0
  40044b:	e9 e0 ff ff ff       	jmpq   400430 <_init+0x10>

0000000000400450 <__printf_chk@plt>:
  400450:	ff 25 ca 0b 20 00    	jmpq   *0x200bca(%rip)        # 601020 <_GLOBAL_OFFSET_TABLE_+0x20>
  400456:	68 01 00 00 00       	pushq  $0x1
  40045b:	e9 d0 ff ff ff       	jmpq   400430 <_init+0x10>

0000000000400460 <rand@plt>:
  400460:	ff 25 c2 0b 20 00    	jmpq   *0x200bc2(%rip)        # 601028 <_GLOBAL_OFFSET_TABLE_+0x28>
  400466:	68 02 00 00 00       	pushq  $0x2
  40046b:	e9 c0 ff ff ff       	jmpq   400430 <_init+0x10>

Disassembly of section .text:

0000000000400470 <_start>:
  400470:	31 ed                	xor    %ebp,%ebp
  400472:	49 89 d1             	mov    %rdx,%r9
  400475:	5e                   	pop    %rsi
  400476:	48 89 e2             	mov    %rsp,%rdx
  400479:	48 83 e4 f0          	and    $0xfffffffffffffff0,%rsp
  40047d:	50                   	push   %rax
  40047e:	54                   	push   %rsp
  40047f:	49 c7 c0 30 09 40 00 	mov    $0x400930,%r8
  400486:	48 c7 c1 a0 08 40 00 	mov    $0x4008a0,%rcx
  40048d:	48 c7 c7 86 05 40 00 	mov    $0x400586,%rdi
  400494:	e8 a7 ff ff ff       	callq  400440 <__libc_start_main@plt>
  400499:	f4                   	hlt    
  40049a:	90                   	nop
  40049b:	90                   	nop

000000000040049c <call_gmon_start>:
  40049c:	48 83 ec 08          	sub    $0x8,%rsp
  4004a0:	48 8b 05 51 0b 20 00 	mov    0x200b51(%rip),%rax        # 600ff8 <_DYNAMIC+0x1d0>
  4004a7:	48 85 c0             	test   %rax,%rax
  4004aa:	74 02                	je     4004ae <call_gmon_start+0x12>
  4004ac:	ff d0                	callq  *%rax
  4004ae:	48 83 c4 08          	add    $0x8,%rsp
  4004b2:	c3                   	retq   
  4004b3:	66 2e 0f 1f 84 00 00 	nopw   %cs:0x0(%rax,%rax,1)
  4004ba:	00 00 00 
  4004bd:	0f 1f 00             	nopl   (%rax)

00000000004004c0 <deregister_tm_clones>:
  4004c0:	b8 47 10 60 00       	mov    $0x601047,%eax
  4004c5:	55                   	push   %rbp
  4004c6:	48 2d 40 10 60 00    	sub    $0x601040,%rax
  4004cc:	48 83 f8 0e          	cmp    $0xe,%rax
  4004d0:	48 89 e5             	mov    %rsp,%rbp
  4004d3:	76 1b                	jbe    4004f0 <deregister_tm_clones+0x30>
  4004d5:	b8 00 00 00 00       	mov    $0x0,%eax
  4004da:	48 85 c0             	test   %rax,%rax
  4004dd:	74 11                	je     4004f0 <deregister_tm_clones+0x30>
  4004df:	5d                   	pop    %rbp
  4004e0:	bf 40 10 60 00       	mov    $0x601040,%edi
  4004e5:	ff e0                	jmpq   *%rax
  4004e7:	66 0f 1f 84 00 00 00 	nopw   0x0(%rax,%rax,1)
  4004ee:	00 00 
  4004f0:	5d                   	pop    %rbp
  4004f1:	c3                   	retq   
  4004f2:	66 66 66 66 66 2e 0f 	data16 data16 data16 data16 nopw %cs:0x0(%rax,%rax,1)
  4004f9:	1f 84 00 00 00 00 00 

0000000000400500 <register_tm_clones>:
  400500:	be 40 10 60 00       	mov    $0x601040,%esi
  400505:	55                   	push   %rbp
  400506:	48 81 ee 40 10 60 00 	sub    $0x601040,%rsi
  40050d:	48 c1 fe 03          	sar    $0x3,%rsi
  400511:	48 89 e5             	mov    %rsp,%rbp
  400514:	48 89 f0             	mov    %rsi,%rax
  400517:	48 c1 e8 3f          	shr    $0x3f,%rax
  40051b:	48 01 c6             	add    %rax,%rsi
  40051e:	48 d1 fe             	sar    %rsi
  400521:	74 15                	je     400538 <register_tm_clones+0x38>
  400523:	b8 00 00 00 00       	mov    $0x0,%eax
  400528:	48 85 c0             	test   %rax,%rax
  40052b:	74 0b                	je     400538 <register_tm_clones+0x38>
  40052d:	5d                   	pop    %rbp
  40052e:	bf 40 10 60 00       	mov    $0x601040,%edi
  400533:	ff e0                	jmpq   *%rax
  400535:	0f 1f 00             	nopl   (%rax)
  400538:	5d                   	pop    %rbp
  400539:	c3                   	retq   
  40053a:	66 0f 1f 44 00 00    	nopw   0x0(%rax,%rax,1)

0000000000400540 <__do_global_dtors_aux>:
  400540:	80 3d f9 0a 20 00 00 	cmpb   $0x0,0x200af9(%rip)        # 601040 <__TMC_END__>
  400547:	75 11                	jne    40055a <__do_global_dtors_aux+0x1a>
  400549:	55                   	push   %rbp
  40054a:	48 89 e5             	mov    %rsp,%rbp
  40054d:	e8 6e ff ff ff       	callq  4004c0 <deregister_tm_clones>
  400552:	5d                   	pop    %rbp
  400553:	c6 05 e6 0a 20 00 01 	movb   $0x1,0x200ae6(%rip)        # 601040 <__TMC_END__>
  40055a:	f3 c3                	repz retq 
  40055c:	0f 1f 40 00          	nopl   0x0(%rax)

0000000000400560 <frame_dummy>:
  400560:	bf 20 0e 60 00       	mov    $0x600e20,%edi
  400565:	48 83 3f 00          	cmpq   $0x0,(%rdi)
  400569:	75 05                	jne    400570 <frame_dummy+0x10>
  40056b:	eb 93                	jmp    400500 <register_tm_clones>
  40056d:	0f 1f 00             	nopl   (%rax)
  400570:	b8 00 00 00 00       	mov    $0x0,%eax
  400575:	48 85 c0             	test   %rax,%rax
  400578:	74 f1                	je     40056b <frame_dummy+0xb>
  40057a:	55                   	push   %rbp
  40057b:	48 89 e5             	mov    %rsp,%rbp
  40057e:	ff d0                	callq  *%rax
  400580:	5d                   	pop    %rbp
  400581:	e9 7a ff ff ff       	jmpq   400500 <register_tm_clones>

0000000000400586 <main>:
  400586:	41 54                	push   %r12
  400588:	55                   	push   %rbp
  400589:	53                   	push   %rbx
  40058a:	48 83 c4 80          	add    $0xffffffffffffff80,%rsp
  40058e:	b8 00 00 00 00       	mov    $0x0,%eax
  400593:	e8 c8 fe ff ff       	callq  400460 <rand@plt>
  400598:	b8 00 00 00 00       	mov    $0x0,%eax
  40059d:	e8 be fe ff ff       	callq  400460 <rand@plt>
  4005a2:	b8 00 00 00 00       	mov    $0x0,%eax
  4005a7:	e8 b4 fe ff ff       	callq  400460 <rand@plt>
  4005ac:	99                   	cltd   
  4005ad:	c1 ea 18             	shr    $0x18,%edx
  4005b0:	8d 1c 10             	lea    (%rax,%rdx,1),%ebx
  4005b3:	0f b6 db             	movzbl %bl,%ebx
  4005b6:	29 d3                	sub    %edx,%ebx
  4005b8:	bd 00 00 00 00       	mov    $0x0,%ebp
  4005bd:	b8 00 00 00 00       	mov    $0x0,%eax
  4005c2:	e8 99 fe ff ff       	callq  400460 <rand@plt>
  4005c7:	99                   	cltd   
  4005c8:	c1 ea 18             	shr    $0x18,%edx
  4005cb:	01 d0                	add    %edx,%eax
  4005cd:	0f b6 c0             	movzbl %al,%eax
  4005d0:	29 d0                	sub    %edx,%eax
  4005d2:	88 85 a0 10 60 00    	mov    %al,0x6010a0(%rbp)
  4005d8:	b8 00 00 00 00       	mov    $0x0,%eax
  4005dd:	e8 7e fe ff ff       	callq  400460 <rand@plt>
  4005e2:	99                   	cltd   
  4005e3:	c1 ea 18             	shr    $0x18,%edx
  4005e6:	01 d0                	add    %edx,%eax
  4005e8:	0f b6 c0             	movzbl %al,%eax
  4005eb:	29 d0                	sub    %edx,%eax
  4005ed:	88 85 60 11 60 00    	mov    %al,0x601160(%rbp)
  4005f3:	b8 00 00 00 00       	mov    $0x0,%eax
  4005f8:	e8 63 fe ff ff       	callq  400460 <rand@plt>
  4005fd:	99                   	cltd   
  4005fe:	c1 ea 18             	shr    $0x18,%edx
  400601:	01 d0                	add    %edx,%eax
  400603:	0f b6 c0             	movzbl %al,%eax
  400606:	29 d0                	sub    %edx,%eax
  400608:	88 85 60 10 60 00    	mov    %al,0x601060(%rbp)
  40060e:	b8 00 00 00 00       	mov    $0x0,%eax
  400613:	e8 48 fe ff ff       	callq  400460 <rand@plt>
  400618:	99                   	cltd   
  400619:	c1 ea 18             	shr    $0x18,%edx
  40061c:	01 d0                	add    %edx,%eax
  40061e:	0f b6 c0             	movzbl %al,%eax
  400621:	29 d0                	sub    %edx,%eax
  400623:	88 85 20 11 60 00    	mov    %al,0x601120(%rbp)
  400629:	b8 00 00 00 00       	mov    $0x0,%eax
  40062e:	e8 2d fe ff ff       	callq  400460 <rand@plt>
  400633:	99                   	cltd   
  400634:	c1 ea 18             	shr    $0x18,%edx
  400637:	01 d0                	add    %edx,%eax
  400639:	0f b6 c0             	movzbl %al,%eax
  40063c:	29 d0                	sub    %edx,%eax
  40063e:	88 85 e0 10 60 00    	mov    %al,0x6010e0(%rbp)
  400644:	b8 00 00 00 00       	mov    $0x0,%eax
  400649:	e8 12 fe ff ff       	callq  400460 <rand@plt>
  40064e:	99                   	cltd   
  40064f:	c1 ea 18             	shr    $0x18,%edx
  400652:	01 d0                	add    %edx,%eax
  400654:	0f b6 c0             	movzbl %al,%eax
  400657:	29 d0                	sub    %edx,%eax
  400659:	88 85 a0 11 60 00    	mov    %al,0x6011a0(%rbp)
  40065f:	48 83 c5 01          	add    $0x1,%rbp
  400663:	48 83 fd 40          	cmp    $0x40,%rbp
  400667:	0f 85 50 ff ff ff    	jne    4005bd <main+0x37>
  40066d:	b9 60 11 60 00       	mov    $0x601160,%ecx
  400672:	0f ae f0             	mfence 
  400675:	0f ae e8             	lfence 
  400678:	0f 31                	rdtsc  
  40067a:	0f ae e8             	lfence 
  40067d:	89 c6                	mov    %eax,%esi
  40067f:	8b 01                	mov    (%rcx),%eax
  400681:	0f ae e8             	lfence 
  400684:	0f 31                	rdtsc  
  400686:	29 f0                	sub    %esi,%eax
  400688:	0f ae 39             	clflush (%rcx)
  40068b:	48 89 44 24 50       	mov    %rax,0x50(%rsp)
  400690:	48 8b 44 24 50       	mov    0x50(%rsp),%rax
  400695:	b9 60 10 60 00       	mov    $0x601060,%ecx
  40069a:	0f ae f0             	mfence 
  40069d:	0f ae e8             	lfence 
  4006a0:	0f 31                	rdtsc  
  4006a2:	0f ae e8             	lfence 
  4006a5:	89 c6                	mov    %eax,%esi
  4006a7:	8b 01                	mov    (%rcx),%eax
  4006a9:	0f ae e8             	lfence 
  4006ac:	0f 31                	rdtsc  
  4006ae:	29 f0                	sub    %esi,%eax
  4006b0:	0f ae 39             	clflush (%rcx)
  4006b3:	48 89 44 24 48       	mov    %rax,0x48(%rsp)
  4006b8:	48 8b 44 24 48       	mov    0x48(%rsp),%rax
  4006bd:	b9 20 11 60 00       	mov    $0x601120,%ecx
  4006c2:	0f ae f0             	mfence 
  4006c5:	0f ae e8             	lfence 
  4006c8:	0f 31                	rdtsc  
  4006ca:	0f ae e8             	lfence 
  4006cd:	89 c6                	mov    %eax,%esi
  4006cf:	8b 01                	mov    (%rcx),%eax
  4006d1:	0f ae e8             	lfence 
  4006d4:	0f 31                	rdtsc  
  4006d6:	29 f0                	sub    %esi,%eax
  4006d8:	0f ae 39             	clflush (%rcx)
  4006db:	48 89 44 24 40       	mov    %rax,0x40(%rsp)
  4006e0:	48 8b 44 24 40       	mov    0x40(%rsp),%rax
  4006e5:	b9 a0 10 60 00       	mov    $0x6010a0,%ecx
  4006ea:	0f ae f0             	mfence 
  4006ed:	0f ae e8             	lfence 
  4006f0:	0f 31                	rdtsc  
  4006f2:	0f ae e8             	lfence 
  4006f5:	89 c6                	mov    %eax,%esi
  4006f7:	8b 01                	mov    (%rcx),%eax
  4006f9:	0f ae e8             	lfence 
  4006fc:	0f 31                	rdtsc  
  4006fe:	29 f0                	sub    %esi,%eax
  400700:	0f ae 39             	clflush (%rcx)
  400703:	48 89 44 24 38       	mov    %rax,0x38(%rsp)
  400708:	48 8b 44 24 38       	mov    0x38(%rsp),%rax
  40070d:	48 89 04 24          	mov    %rax,(%rsp)
  400711:	b9 e0 10 60 00       	mov    $0x6010e0,%ecx
  400716:	0f ae f0             	mfence 
  400719:	0f ae e8             	lfence 
  40071c:	0f 31                	rdtsc  
  40071e:	0f ae e8             	lfence 
  400721:	89 c6                	mov    %eax,%esi
  400723:	8b 01                	mov    (%rcx),%eax
  400725:	0f ae e8             	lfence 
  400728:	0f 31                	rdtsc  
  40072a:	29 f0                	sub    %esi,%eax
  40072c:	0f ae 39             	clflush (%rcx)
  40072f:	48 89 44 24 30       	mov    %rax,0x30(%rsp)
  400734:	48 8b 44 24 30       	mov    0x30(%rsp),%rax
  400739:	48 89 44 24 20       	mov    %rax,0x20(%rsp)
  40073e:	41 bc e8 03 00 00    	mov    $0x3e8,%r12d
  400744:	bd a0 10 60 00       	mov    $0x6010a0,%ebp
  400749:	b8 00 00 00 00       	mov    $0x0,%eax
  40074e:	e8 0d fd ff ff       	callq  400460 <rand@plt>
  400753:	b8 00 00 00 00       	mov    $0x0,%eax
  400758:	e8 03 fd ff ff       	callq  400460 <rand@plt>
  40075d:	48 89 e9             	mov    %rbp,%rcx
  400760:	0f ae f0             	mfence 
  400763:	0f ae e8             	lfence 
  400766:	0f 31                	rdtsc  
  400768:	0f ae e8             	lfence 
  40076b:	89 c6                	mov    %eax,%esi
  40076d:	8b 01                	mov    (%rcx),%eax
  40076f:	0f ae e8             	lfence 
  400772:	0f 31                	rdtsc  
  400774:	29 f0                	sub    %esi,%eax
  400776:	0f ae 39             	clflush (%rcx)
  400779:	48 89 44 24 78       	mov    %rax,0x78(%rsp)
  40077e:	48 8b 44 24 78       	mov    0x78(%rsp),%rax
  400783:	48 89 44 24 08       	mov    %rax,0x8(%rsp)
  400788:	0f ae f0             	mfence 
  40078b:	0f ae e8             	lfence 
  40078e:	0f 31                	rdtsc  
  400790:	0f ae e8             	lfence 
  400793:	89 c6                	mov    %eax,%esi
  400795:	8b 01                	mov    (%rcx),%eax
  400797:	0f ae e8             	lfence 
  40079a:	0f 31                	rdtsc  
  40079c:	29 f0                	sub    %esi,%eax
  40079e:	0f ae 39             	clflush (%rcx)
  4007a1:	48 89 44 24 70       	mov    %rax,0x70(%rsp)
  4007a6:	48 8b 44 24 70       	mov    0x70(%rsp),%rax
  4007ab:	48 89 44 24 18       	mov    %rax,0x18(%rsp)
  4007b0:	b9 e0 10 60 00       	mov    $0x6010e0,%ecx
  4007b5:	0f ae f0             	mfence 
  4007b8:	0f ae e8             	lfence 
  4007bb:	0f 31                	rdtsc  
  4007bd:	0f ae e8             	lfence 
  4007c0:	89 c6                	mov    %eax,%esi
  4007c2:	8b 01                	mov    (%rcx),%eax
  4007c4:	0f ae e8             	lfence 
  4007c7:	0f 31                	rdtsc  
  4007c9:	29 f0                	sub    %esi,%eax
  4007cb:	0f ae 39             	clflush (%rcx)
  4007ce:	48 89 44 24 68       	mov    %rax,0x68(%rsp)
  4007d3:	48 8b 44 24 68       	mov    0x68(%rsp),%rax
  4007d8:	48 89 04 24          	mov    %rax,(%rsp)
  4007dc:	0f ae f0             	mfence 
  4007df:	0f ae e8             	lfence 
  4007e2:	0f 31                	rdtsc  
  4007e4:	0f ae e8             	lfence 
  4007e7:	89 c6                	mov    %eax,%esi
  4007e9:	8b 01                	mov    (%rcx),%eax
  4007eb:	0f ae e8             	lfence 
  4007ee:	0f 31                	rdtsc  
  4007f0:	29 f0                	sub    %esi,%eax
  4007f2:	0f ae 39             	clflush (%rcx)
  4007f5:	48 89 44 24 60       	mov    %rax,0x60(%rsp)
  4007fa:	48 8b 44 24 60       	mov    0x60(%rsp),%rax
  4007ff:	48 89 04 24          	mov    %rax,(%rsp)
  400803:	0f af db             	imul   %ebx,%ebx
  400806:	0f af db             	imul   %ebx,%ebx
  400809:	48 89 e9             	mov    %rbp,%rcx
  40080c:	0f ae f0             	mfence 
  40080f:	0f ae e8             	lfence 
  400812:	0f 31                	rdtsc  
  400814:	0f ae e8             	lfence 
  400817:	89 c6                	mov    %eax,%esi
  400819:	8b 01                	mov    (%rcx),%eax
  40081b:	0f ae e8             	lfence 
  40081e:	0f 31                	rdtsc  
  400820:	29 f0                	sub    %esi,%eax
  400822:	0f ae 39             	clflush (%rcx)
  400825:	48 89 44 24 58       	mov    %rax,0x58(%rsp)
  40082a:	48 8b 44 24 58       	mov    0x58(%rsp),%rax
  40082f:	48 89 44 24 10       	mov    %rax,0x10(%rsp)
  400834:	48 8b 44 24 10       	mov    0x10(%rsp),%rax
  400839:	48 83 f8 63          	cmp    $0x63,%rax
  40083d:	77 36                	ja     400875 <main+0x2ef>
  40083f:	48 8b 44 24 28       	mov    0x28(%rsp),%rax
  400844:	4c 8b 4c 24 20       	mov    0x20(%rsp),%r9
  400849:	4c 8b 44 24 10       	mov    0x10(%rsp),%r8
  40084e:	48 8b 4c 24 18       	mov    0x18(%rsp),%rcx
  400853:	48 8b 54 24 08       	mov    0x8(%rsp),%rdx
  400858:	48 83 ec 08          	sub    $0x8,%rsp
  40085c:	50                   	push   %rax
  40085d:	be 44 09 40 00       	mov    $0x400944,%esi
  400862:	bf 01 00 00 00       	mov    $0x1,%edi
  400867:	b8 00 00 00 00       	mov    $0x0,%eax
  40086c:	e8 df fb ff ff       	callq  400450 <__printf_chk@plt>
  400871:	48 83 c4 10          	add    $0x10,%rsp
  400875:	41 83 ec 01          	sub    $0x1,%r12d
  400879:	0f 85 ca fe ff ff    	jne    400749 <main+0x1c3>
  40087f:	0f b6 05 1a 08 20 00 	movzbl 0x20081a(%rip),%eax        # 6010a0 <table1>
  400886:	01 d8                	add    %ebx,%eax
  400888:	48 83 ec 80          	sub    $0xffffffffffffff80,%rsp
  40088c:	5b                   	pop    %rbx
  40088d:	5d                   	pop    %rbp
  40088e:	41 5c                	pop    %r12
  400890:	c3                   	retq   
  400891:	66 2e 0f 1f 84 00 00 	nopw   %cs:0x0(%rax,%rax,1)
  400898:	00 00 00 
  40089b:	0f 1f 44 00 00       	nopl   0x0(%rax,%rax,1)

00000000004008a0 <__libc_csu_init>:
  4008a0:	48 89 6c 24 d8       	mov    %rbp,-0x28(%rsp)
  4008a5:	4c 89 64 24 e0       	mov    %r12,-0x20(%rsp)
  4008aa:	48 8d 2d 67 05 20 00 	lea    0x200567(%rip),%rbp        # 600e18 <__init_array_end>
  4008b1:	4c 8d 25 58 05 20 00 	lea    0x200558(%rip),%r12        # 600e10 <__frame_dummy_init_array_entry>
  4008b8:	4c 89 6c 24 e8       	mov    %r13,-0x18(%rsp)
  4008bd:	4c 89 74 24 f0       	mov    %r14,-0x10(%rsp)
  4008c2:	4c 89 7c 24 f8       	mov    %r15,-0x8(%rsp)
  4008c7:	48 89 5c 24 d0       	mov    %rbx,-0x30(%rsp)
  4008cc:	48 83 ec 38          	sub    $0x38,%rsp
  4008d0:	4c 29 e5             	sub    %r12,%rbp
  4008d3:	41 89 fd             	mov    %edi,%r13d
  4008d6:	49 89 f6             	mov    %rsi,%r14
  4008d9:	48 c1 fd 03          	sar    $0x3,%rbp
  4008dd:	49 89 d7             	mov    %rdx,%r15
  4008e0:	e8 3b fb ff ff       	callq  400420 <_init>
  4008e5:	48 85 ed             	test   %rbp,%rbp
  4008e8:	74 1c                	je     400906 <__libc_csu_init+0x66>
  4008ea:	31 db                	xor    %ebx,%ebx
  4008ec:	0f 1f 40 00          	nopl   0x0(%rax)
  4008f0:	4c 89 fa             	mov    %r15,%rdx
  4008f3:	4c 89 f6             	mov    %r14,%rsi
  4008f6:	44 89 ef             	mov    %r13d,%edi
  4008f9:	41 ff 14 dc          	callq  *(%r12,%rbx,8)
  4008fd:	48 83 c3 01          	add    $0x1,%rbx
  400901:	48 39 eb             	cmp    %rbp,%rbx
  400904:	75 ea                	jne    4008f0 <__libc_csu_init+0x50>
  400906:	48 8b 5c 24 08       	mov    0x8(%rsp),%rbx
  40090b:	48 8b 6c 24 10       	mov    0x10(%rsp),%rbp
  400910:	4c 8b 64 24 18       	mov    0x18(%rsp),%r12
  400915:	4c 8b 6c 24 20       	mov    0x20(%rsp),%r13
  40091a:	4c 8b 74 24 28       	mov    0x28(%rsp),%r14
  40091f:	4c 8b 7c 24 30       	mov    0x30(%rsp),%r15
  400924:	48 83 c4 38          	add    $0x38,%rsp
  400928:	c3                   	retq   
  400929:	0f 1f 80 00 00 00 00 	nopl   0x0(%rax)

0000000000400930 <__libc_csu_fini>:
  400930:	f3 c3                	repz retq 
  400932:	66 90                	xchg   %ax,%ax

Disassembly of section .fini:

0000000000400934 <_fini>:
  400934:	48 83 ec 08          	sub    $0x8,%rsp
  400938:	48 83 c4 08          	add    $0x8,%rsp
  40093c:	c3                   	retq   
