
test2:     file format elf64-x86-64


Disassembly of section .init:

0000000000400420 <_init>:
  400420:	48 83 ec 08          	sub    $0x8,%rsp
  400424:	e8 73 00 00 00       	callq  40049c <call_gmon_start>
  400429:	48 83 c4 08          	add    $0x8,%rsp
  40042d:	c3                   	retq   

Disassembly of section .plt:

0000000000400430 <__libc_start_main@plt-0x10>:
  400430:	ff 35 d2 0b 20 00    	pushq  0x200bd2(%rip)        # 601008 <_GLOBAL_OFFSET_TABLE_+0x8>
  400436:	ff 25 d4 0b 20 00    	jmpq   *0x200bd4(%rip)        # 601010 <_GLOBAL_OFFSET_TABLE_+0x10>
  40043c:	0f 1f 40 00          	nopl   0x0(%rax)

0000000000400440 <__libc_start_main@plt>:
  400440:	ff 25 d2 0b 20 00    	jmpq   *0x200bd2(%rip)        # 601018 <_GLOBAL_OFFSET_TABLE_+0x18>
  400446:	68 00 00 00 00       	pushq  $0x0
  40044b:	e9 e0 ff ff ff       	jmpq   400430 <_init+0x10>

0000000000400450 <__printf_chk@plt>:
  400450:	ff 25 ca 0b 20 00    	jmpq   *0x200bca(%rip)        # 601020 <_GLOBAL_OFFSET_TABLE_+0x20>
  400456:	68 01 00 00 00       	pushq  $0x1
  40045b:	e9 d0 ff ff ff       	jmpq   400430 <_init+0x10>

0000000000400460 <rand@plt>:
  400460:	ff 25 c2 0b 20 00    	jmpq   *0x200bc2(%rip)        # 601028 <_GLOBAL_OFFSET_TABLE_+0x28>
  400466:	68 02 00 00 00       	pushq  $0x2
  40046b:	e9 c0 ff ff ff       	jmpq   400430 <_init+0x10>

Disassembly of section .text:

0000000000400470 <_start>:
  400470:	31 ed                	xor    %ebp,%ebp
  400472:	49 89 d1             	mov    %rdx,%r9
  400475:	5e                   	pop    %rsi
  400476:	48 89 e2             	mov    %rsp,%rdx
  400479:	48 83 e4 f0          	and    $0xfffffffffffffff0,%rsp
  40047d:	50                   	push   %rax
  40047e:	54                   	push   %rsp
  40047f:	49 c7 c0 00 09 40 00 	mov    $0x400900,%r8
  400486:	48 c7 c1 70 08 40 00 	mov    $0x400870,%rcx
  40048d:	48 c7 c7 86 05 40 00 	mov    $0x400586,%rdi
  400494:	e8 a7 ff ff ff       	callq  400440 <__libc_start_main@plt>
  400499:	f4                   	hlt    
  40049a:	90                   	nop
  40049b:	90                   	nop

000000000040049c <call_gmon_start>:
  40049c:	48 83 ec 08          	sub    $0x8,%rsp
  4004a0:	48 8b 05 51 0b 20 00 	mov    0x200b51(%rip),%rax        # 600ff8 <_DYNAMIC+0x1d0>
  4004a7:	48 85 c0             	test   %rax,%rax
  4004aa:	74 02                	je     4004ae <call_gmon_start+0x12>
  4004ac:	ff d0                	callq  *%rax
  4004ae:	48 83 c4 08          	add    $0x8,%rsp
  4004b2:	c3                   	retq   
  4004b3:	66 2e 0f 1f 84 00 00 	nopw   %cs:0x0(%rax,%rax,1)
  4004ba:	00 00 00 
  4004bd:	0f 1f 00             	nopl   (%rax)

00000000004004c0 <deregister_tm_clones>:
  4004c0:	b8 47 10 60 00       	mov    $0x601047,%eax
  4004c5:	55                   	push   %rbp
  4004c6:	48 2d 40 10 60 00    	sub    $0x601040,%rax
  4004cc:	48 83 f8 0e          	cmp    $0xe,%rax
  4004d0:	48 89 e5             	mov    %rsp,%rbp
  4004d3:	76 1b                	jbe    4004f0 <deregister_tm_clones+0x30>
  4004d5:	b8 00 00 00 00       	mov    $0x0,%eax
  4004da:	48 85 c0             	test   %rax,%rax
  4004dd:	74 11                	je     4004f0 <deregister_tm_clones+0x30>
  4004df:	5d                   	pop    %rbp
  4004e0:	bf 40 10 60 00       	mov    $0x601040,%edi
  4004e5:	ff e0                	jmpq   *%rax
  4004e7:	66 0f 1f 84 00 00 00 	nopw   0x0(%rax,%rax,1)
  4004ee:	00 00 
  4004f0:	5d                   	pop    %rbp
  4004f1:	c3                   	retq   
  4004f2:	66 66 66 66 66 2e 0f 	data16 data16 data16 data16 nopw %cs:0x0(%rax,%rax,1)
  4004f9:	1f 84 00 00 00 00 00 

0000000000400500 <register_tm_clones>:
  400500:	be 40 10 60 00       	mov    $0x601040,%esi
  400505:	55                   	push   %rbp
  400506:	48 81 ee 40 10 60 00 	sub    $0x601040,%rsi
  40050d:	48 c1 fe 03          	sar    $0x3,%rsi
  400511:	48 89 e5             	mov    %rsp,%rbp
  400514:	48 89 f0             	mov    %rsi,%rax
  400517:	48 c1 e8 3f          	shr    $0x3f,%rax
  40051b:	48 01 c6             	add    %rax,%rsi
  40051e:	48 d1 fe             	sar    %rsi
  400521:	74 15                	je     400538 <register_tm_clones+0x38>
  400523:	b8 00 00 00 00       	mov    $0x0,%eax
  400528:	48 85 c0             	test   %rax,%rax
  40052b:	74 0b                	je     400538 <register_tm_clones+0x38>
  40052d:	5d                   	pop    %rbp
  40052e:	bf 40 10 60 00       	mov    $0x601040,%edi
  400533:	ff e0                	jmpq   *%rax
  400535:	0f 1f 00             	nopl   (%rax)
  400538:	5d                   	pop    %rbp
  400539:	c3                   	retq   
  40053a:	66 0f 1f 44 00 00    	nopw   0x0(%rax,%rax,1)

0000000000400540 <__do_global_dtors_aux>:
  400540:	80 3d f9 0a 20 00 00 	cmpb   $0x0,0x200af9(%rip)        # 601040 <__TMC_END__>
  400547:	75 11                	jne    40055a <__do_global_dtors_aux+0x1a>
  400549:	55                   	push   %rbp
  40054a:	48 89 e5             	mov    %rsp,%rbp
  40054d:	e8 6e ff ff ff       	callq  4004c0 <deregister_tm_clones>
  400552:	5d                   	pop    %rbp
  400553:	c6 05 e6 0a 20 00 01 	movb   $0x1,0x200ae6(%rip)        # 601040 <__TMC_END__>
  40055a:	f3 c3                	repz retq 
  40055c:	0f 1f 40 00          	nopl   0x0(%rax)

0000000000400560 <frame_dummy>:
  400560:	bf 20 0e 60 00       	mov    $0x600e20,%edi
  400565:	48 83 3f 00          	cmpq   $0x0,(%rdi)
  400569:	75 05                	jne    400570 <frame_dummy+0x10>
  40056b:	eb 93                	jmp    400500 <register_tm_clones>
  40056d:	0f 1f 00             	nopl   (%rax)
  400570:	b8 00 00 00 00       	mov    $0x0,%eax
  400575:	48 85 c0             	test   %rax,%rax
  400578:	74 f1                	je     40056b <frame_dummy+0xb>
  40057a:	55                   	push   %rbp
  40057b:	48 89 e5             	mov    %rsp,%rbp
  40057e:	ff d0                	callq  *%rax
  400580:	5d                   	pop    %rbp
  400581:	e9 7a ff ff ff       	jmpq   400500 <register_tm_clones>

0000000000400586 <main>:
  400586:	41 54                	push   %r12
  400588:	55                   	push   %rbp
  400589:	53                   	push   %rbx
  40058a:	48 83 c4 80          	add    $0xffffffffffffff80,%rsp
  40058e:	b8 00 00 00 00       	mov    $0x0,%eax
  400593:	e8 c8 fe ff ff       	callq  400460 <rand@plt>
  400598:	b8 00 00 00 00       	mov    $0x0,%eax
  40059d:	e8 be fe ff ff       	callq  400460 <rand@plt>
  4005a2:	b8 00 00 00 00       	mov    $0x0,%eax
  4005a7:	e8 b4 fe ff ff       	callq  400460 <rand@plt>
  4005ac:	99                   	cltd   
  4005ad:	c1 ea 18             	shr    $0x18,%edx
  4005b0:	8d 1c 10             	lea    (%rax,%rdx,1),%ebx
  4005b3:	0f b6 db             	movzbl %bl,%ebx
  4005b6:	29 d3                	sub    %edx,%ebx
  4005b8:	bd 00 00 00 00       	mov    $0x0,%ebp
  4005bd:	b8 00 00 00 00       	mov    $0x0,%eax
  4005c2:	e8 99 fe ff ff       	callq  400460 <rand@plt>
  4005c7:	99                   	cltd   
  4005c8:	c1 ea 18             	shr    $0x18,%edx
  4005cb:	01 d0                	add    %edx,%eax
  4005cd:	0f b6 c0             	movzbl %al,%eax
  4005d0:	29 d0                	sub    %edx,%eax
  4005d2:	88 85 a0 10 60 00    	mov    %al,0x6010a0(%rbp)
  4005d8:	b8 00 00 00 00       	mov    $0x0,%eax
  4005dd:	e8 7e fe ff ff       	callq  400460 <rand@plt>
  4005e2:	99                   	cltd   
  4005e3:	c1 ea 18             	shr    $0x18,%edx
  4005e6:	01 d0                	add    %edx,%eax
  4005e8:	0f b6 c0             	movzbl %al,%eax
  4005eb:	29 d0                	sub    %edx,%eax
  4005ed:	88 85 60 11 60 00    	mov    %al,0x601160(%rbp)
  4005f3:	b8 00 00 00 00       	mov    $0x0,%eax
  4005f8:	e8 63 fe ff ff       	callq  400460 <rand@plt>
  4005fd:	99                   	cltd   
  4005fe:	c1 ea 18             	shr    $0x18,%edx
  400601:	01 d0                	add    %edx,%eax
  400603:	0f b6 c0             	movzbl %al,%eax
  400606:	29 d0                	sub    %edx,%eax
  400608:	88 85 60 10 60 00    	mov    %al,0x601060(%rbp)
  40060e:	b8 00 00 00 00       	mov    $0x0,%eax
  400613:	e8 48 fe ff ff       	callq  400460 <rand@plt>
  400618:	99                   	cltd   
  400619:	c1 ea 18             	shr    $0x18,%edx
  40061c:	01 d0                	add    %edx,%eax
  40061e:	0f b6 c0             	movzbl %al,%eax
  400621:	29 d0                	sub    %edx,%eax
  400623:	88 85 20 11 60 00    	mov    %al,0x601120(%rbp)
  400629:	b8 00 00 00 00       	mov    $0x0,%eax
  40062e:	e8 2d fe ff ff       	callq  400460 <rand@plt>
  400633:	99                   	cltd   
  400634:	c1 ea 18             	shr    $0x18,%edx
  400637:	01 d0                	add    %edx,%eax
  400639:	0f b6 c0             	movzbl %al,%eax
  40063c:	29 d0                	sub    %edx,%eax
  40063e:	88 85 e0 10 60 00    	mov    %al,0x6010e0(%rbp)
  400644:	b8 00 00 00 00       	mov    $0x0,%eax
  400649:	e8 12 fe ff ff       	callq  400460 <rand@plt>
  40064e:	99                   	cltd   
  40064f:	c1 ea 18             	shr    $0x18,%edx
  400652:	01 d0                	add    %edx,%eax
  400654:	0f b6 c0             	movzbl %al,%eax
  400657:	29 d0                	sub    %edx,%eax
  400659:	88 85 a0 11 60 00    	mov    %al,0x6011a0(%rbp)
  40065f:	48 83 c5 01          	add    $0x1,%rbp
  400663:	48 83 fd 40          	cmp    $0x40,%rbp
  400667:	0f 85 50 ff ff ff    	jne    4005bd <main+0x37>
  40066d:	b9 60 11 60 00       	mov    $0x601160,%ecx
  400672:	0f ae f0             	mfence 
  400675:	0f ae e8             	lfence 
  400678:	0f 31                	rdtsc  
  40067a:	0f ae e8             	lfence 
  40067d:	89 c6                	mov    %eax,%esi
  40067f:	8b 01                	mov    (%rcx),%eax
  400681:	0f ae e8             	lfence 
  400684:	0f 31                	rdtsc  
  400686:	29 f0                	sub    %esi,%eax
  400688:	0f ae 39             	clflush (%rcx)
  40068b:	48 89 44 24 58       	mov    %rax,0x58(%rsp)
  400690:	48 8b 44 24 58       	mov    0x58(%rsp),%rax
  400695:	b9 60 10 60 00       	mov    $0x601060,%ecx
  40069a:	0f ae f0             	mfence 
  40069d:	0f ae e8             	lfence 
  4006a0:	0f 31                	rdtsc  
  4006a2:	0f ae e8             	lfence 
  4006a5:	89 c6                	mov    %eax,%esi
  4006a7:	8b 01                	mov    (%rcx),%eax
  4006a9:	0f ae e8             	lfence 
  4006ac:	0f 31                	rdtsc  
  4006ae:	29 f0                	sub    %esi,%eax
  4006b0:	0f ae 39             	clflush (%rcx)
  4006b3:	48 89 44 24 50       	mov    %rax,0x50(%rsp)
  4006b8:	48 8b 44 24 50       	mov    0x50(%rsp),%rax
  4006bd:	b9 20 11 60 00       	mov    $0x601120,%ecx
  4006c2:	0f ae f0             	mfence 
  4006c5:	0f ae e8             	lfence 
  4006c8:	0f 31                	rdtsc  
  4006ca:	0f ae e8             	lfence 
  4006cd:	89 c6                	mov    %eax,%esi
  4006cf:	8b 01                	mov    (%rcx),%eax
  4006d1:	0f ae e8             	lfence 
  4006d4:	0f 31                	rdtsc  
  4006d6:	29 f0                	sub    %esi,%eax
  4006d8:	0f ae 39             	clflush (%rcx)
  4006db:	48 89 44 24 48       	mov    %rax,0x48(%rsp)
  4006e0:	48 8b 44 24 48       	mov    0x48(%rsp),%rax
  4006e5:	b9 a0 10 60 00       	mov    $0x6010a0,%ecx
  4006ea:	0f ae f0             	mfence 
  4006ed:	0f ae e8             	lfence 
  4006f0:	0f 31                	rdtsc  
  4006f2:	0f ae e8             	lfence 
  4006f5:	89 c6                	mov    %eax,%esi
  4006f7:	8b 01                	mov    (%rcx),%eax
  4006f9:	0f ae e8             	lfence 
  4006fc:	0f 31                	rdtsc  
  4006fe:	29 f0                	sub    %esi,%eax
  400700:	0f ae 39             	clflush (%rcx)
  400703:	48 89 44 24 40       	mov    %rax,0x40(%rsp)
  400708:	48 8b 44 24 40       	mov    0x40(%rsp),%rax
  40070d:	48 89 44 24 08       	mov    %rax,0x8(%rsp)
  400712:	b9 e0 10 60 00       	mov    $0x6010e0,%ecx
  400717:	0f ae f0             	mfence 
  40071a:	0f ae e8             	lfence 
  40071d:	0f 31                	rdtsc  
  40071f:	0f ae e8             	lfence 
  400722:	89 c6                	mov    %eax,%esi
  400724:	8b 01                	mov    (%rcx),%eax
  400726:	0f ae e8             	lfence 
  400729:	0f 31                	rdtsc  
  40072b:	29 f0                	sub    %esi,%eax
  40072d:	0f ae 39             	clflush (%rcx)
  400730:	48 89 44 24 38       	mov    %rax,0x38(%rsp)
  400735:	48 8b 44 24 38       	mov    0x38(%rsp),%rax
  40073a:	48 89 44 24 28       	mov    %rax,0x28(%rsp)
  40073f:	41 bc e8 03 00 00    	mov    $0x3e8,%r12d
  400745:	bd a0 10 60 00       	mov    $0x6010a0,%ebp
  40074a:	b8 00 00 00 00       	mov    $0x0,%eax
  40074f:	e8 0c fd ff ff       	callq  400460 <rand@plt>
  400754:	b8 00 00 00 00       	mov    $0x0,%eax
  400759:	e8 02 fd ff ff       	callq  400460 <rand@plt>
  40075e:	48 89 e9             	mov    %rbp,%rcx
  400761:	0f ae f0             	mfence 
  400764:	0f ae e8             	lfence 
  400767:	0f 31                	rdtsc  
  400769:	0f ae e8             	lfence 
  40076c:	89 c6                	mov    %eax,%esi
  40076e:	8b 01                	mov    (%rcx),%eax
  400770:	0f ae e8             	lfence 
  400773:	0f 31                	rdtsc  
  400775:	29 f0                	sub    %esi,%eax
  400777:	0f ae 39             	clflush (%rcx)
  40077a:	48 89 44 24 78       	mov    %rax,0x78(%rsp)
  40077f:	48 8b 44 24 78       	mov    0x78(%rsp),%rax
  400784:	48 89 44 24 10       	mov    %rax,0x10(%rsp)
  400789:	0f ae f0             	mfence 
  40078c:	0f ae e8             	lfence 
  40078f:	0f 31                	rdtsc  
  400791:	0f ae e8             	lfence 
  400794:	89 c6                	mov    %eax,%esi
  400796:	8b 01                	mov    (%rcx),%eax
  400798:	0f ae e8             	lfence 
  40079b:	0f 31                	rdtsc  
  40079d:	29 f0                	sub    %esi,%eax
  40079f:	0f ae 39             	clflush (%rcx)
  4007a2:	48 89 44 24 70       	mov    %rax,0x70(%rsp)
  4007a7:	48 8b 44 24 70       	mov    0x70(%rsp),%rax
  4007ac:	48 89 44 24 20       	mov    %rax,0x20(%rsp)
  4007b1:	b9 e0 10 60 00       	mov    $0x6010e0,%ecx
  4007b6:	0f ae f0             	mfence 
  4007b9:	0f ae e8             	lfence 
  4007bc:	0f 31                	rdtsc  
  4007be:	0f ae e8             	lfence 
  4007c1:	89 c6                	mov    %eax,%esi
  4007c3:	8b 01                	mov    (%rcx),%eax
  4007c5:	0f ae e8             	lfence 
  4007c8:	0f 31                	rdtsc  
  4007ca:	29 f0                	sub    %esi,%eax
  4007cc:	0f ae 39             	clflush (%rcx)
  4007cf:	48 89 44 24 68       	mov    %rax,0x68(%rsp)
  4007d4:	48 8b 44 24 68       	mov    0x68(%rsp),%rax
  4007d9:	48 89 44 24 08       	mov    %rax,0x8(%rsp)
  4007de:	0f af db             	imul   %ebx,%ebx
  4007e1:	0f af db             	imul   %ebx,%ebx
  4007e4:	48 89 e9             	mov    %rbp,%rcx
  4007e7:	0f ae f0             	mfence 
  4007ea:	0f ae e8             	lfence 
  4007ed:	0f 31                	rdtsc  
  4007ef:	0f ae e8             	lfence 
  4007f2:	89 c6                	mov    %eax,%esi
  4007f4:	8b 01                	mov    (%rcx),%eax
  4007f6:	0f ae e8             	lfence 
  4007f9:	0f 31                	rdtsc  
  4007fb:	29 f0                	sub    %esi,%eax
  4007fd:	0f ae 39             	clflush (%rcx)
  400800:	48 89 44 24 60       	mov    %rax,0x60(%rsp)
  400805:	48 8b 44 24 60       	mov    0x60(%rsp),%rax
  40080a:	48 89 44 24 18       	mov    %rax,0x18(%rsp)
  40080f:	48 8b 44 24 18       	mov    0x18(%rsp),%rax
  400814:	48 83 f8 63          	cmp    $0x63,%rax
  400818:	77 36                	ja     400850 <main+0x2ca>
  40081a:	48 8b 44 24 30       	mov    0x30(%rsp),%rax
  40081f:	4c 8b 4c 24 28       	mov    0x28(%rsp),%r9
  400824:	4c 8b 44 24 18       	mov    0x18(%rsp),%r8
  400829:	48 8b 4c 24 20       	mov    0x20(%rsp),%rcx
  40082e:	48 8b 54 24 10       	mov    0x10(%rsp),%rdx
  400833:	48 83 ec 08          	sub    $0x8,%rsp
  400837:	50                   	push   %rax
  400838:	be 14 09 40 00       	mov    $0x400914,%esi
  40083d:	bf 01 00 00 00       	mov    $0x1,%edi
  400842:	b8 00 00 00 00       	mov    $0x0,%eax
  400847:	e8 04 fc ff ff       	callq  400450 <__printf_chk@plt>
  40084c:	48 83 c4 10          	add    $0x10,%rsp
  400850:	41 83 ec 01          	sub    $0x1,%r12d
  400854:	0f 85 f0 fe ff ff    	jne    40074a <main+0x1c4>
  40085a:	0f b6 05 3f 08 20 00 	movzbl 0x20083f(%rip),%eax        # 6010a0 <table1>
  400861:	01 d8                	add    %ebx,%eax
  400863:	48 83 ec 80          	sub    $0xffffffffffffff80,%rsp
  400867:	5b                   	pop    %rbx
  400868:	5d                   	pop    %rbp
  400869:	41 5c                	pop    %r12
  40086b:	c3                   	retq   
  40086c:	0f 1f 40 00          	nopl   0x0(%rax)

0000000000400870 <__libc_csu_init>:
  400870:	48 89 6c 24 d8       	mov    %rbp,-0x28(%rsp)
  400875:	4c 89 64 24 e0       	mov    %r12,-0x20(%rsp)
  40087a:	48 8d 2d 97 05 20 00 	lea    0x200597(%rip),%rbp        # 600e18 <__init_array_end>
  400881:	4c 8d 25 88 05 20 00 	lea    0x200588(%rip),%r12        # 600e10 <__frame_dummy_init_array_entry>
  400888:	4c 89 6c 24 e8       	mov    %r13,-0x18(%rsp)
  40088d:	4c 89 74 24 f0       	mov    %r14,-0x10(%rsp)
  400892:	4c 89 7c 24 f8       	mov    %r15,-0x8(%rsp)
  400897:	48 89 5c 24 d0       	mov    %rbx,-0x30(%rsp)
  40089c:	48 83 ec 38          	sub    $0x38,%rsp
  4008a0:	4c 29 e5             	sub    %r12,%rbp
  4008a3:	41 89 fd             	mov    %edi,%r13d
  4008a6:	49 89 f6             	mov    %rsi,%r14
  4008a9:	48 c1 fd 03          	sar    $0x3,%rbp
  4008ad:	49 89 d7             	mov    %rdx,%r15
  4008b0:	e8 6b fb ff ff       	callq  400420 <_init>
  4008b5:	48 85 ed             	test   %rbp,%rbp
  4008b8:	74 1c                	je     4008d6 <__libc_csu_init+0x66>
  4008ba:	31 db                	xor    %ebx,%ebx
  4008bc:	0f 1f 40 00          	nopl   0x0(%rax)
  4008c0:	4c 89 fa             	mov    %r15,%rdx
  4008c3:	4c 89 f6             	mov    %r14,%rsi
  4008c6:	44 89 ef             	mov    %r13d,%edi
  4008c9:	41 ff 14 dc          	callq  *(%r12,%rbx,8)
  4008cd:	48 83 c3 01          	add    $0x1,%rbx
  4008d1:	48 39 eb             	cmp    %rbp,%rbx
  4008d4:	75 ea                	jne    4008c0 <__libc_csu_init+0x50>
  4008d6:	48 8b 5c 24 08       	mov    0x8(%rsp),%rbx
  4008db:	48 8b 6c 24 10       	mov    0x10(%rsp),%rbp
  4008e0:	4c 8b 64 24 18       	mov    0x18(%rsp),%r12
  4008e5:	4c 8b 6c 24 20       	mov    0x20(%rsp),%r13
  4008ea:	4c 8b 74 24 28       	mov    0x28(%rsp),%r14
  4008ef:	4c 8b 7c 24 30       	mov    0x30(%rsp),%r15
  4008f4:	48 83 c4 38          	add    $0x38,%rsp
  4008f8:	c3                   	retq   
  4008f9:	0f 1f 80 00 00 00 00 	nopl   0x0(%rax)

0000000000400900 <__libc_csu_fini>:
  400900:	f3 c3                	repz retq 
  400902:	66 90                	xchg   %ax,%ax

Disassembly of section .fini:

0000000000400904 <_fini>:
  400904:	48 83 ec 08          	sub    $0x8,%rsp
  400908:	48 83 c4 08          	add    $0x8,%rsp
  40090c:	c3                   	retq   
